target datalayout = "e-m:e-p270:32:32-p271:32:32-p272:64:64-i64:64-i128:128-f80:128-n8:16:32:64-S128"
target triple = "x86_64-unknown-linux-gnu"

%"struct.grpc_event_engine::experimental::EventEngine::TaskHandle" = type { [2 x i64] }
%"class.grpc_core::Duration" = type { i64 }
%"class.std::basic_string_view" = type { i64, ptr }
%"class.absl::lts_20230802::Status" = type { i64 }
%struct.gpr_timespec = type { i64, i32, i32 }
%"class.std::__shared_count" = type { ptr }
%"class.grpc_core::Timestamp" = type { i64 }
%struct.grpc_chttp2_transport = type { %"class.grpc_core::Transport", %"class.grpc_core::FilterStackTransport", %"class.grpc_core::RefCounted", ptr, %"class.grpc_core::Slice", %"class.grpc_core::MemoryOwner", %"class.grpc_event_engine::experimental::MemoryAllocator::Reservation", %"class.grpc_core::ReclamationSweep", %"class.std::shared_ptr.60", ptr, %"class.absl::lts_20230802::random_internal::NonsecureURBGBase", ptr, ptr, %"class.absl::lts_20230802::Status", [5 x %struct.grpc_chttp2_stream_list], %"class.absl::lts_20230802::flat_hash_map", i64, %struct.grpc_closure, %struct.grpc_closure, %struct.grpc_closure, %struct.grpc_slice_buffer, ptr, ptr, ptr, ptr, %"class.grpc_core::ConnectivityStateTracker", %"class.grpc_core::SliceBuffer", %"class.grpc_core::HPackCompressor", %struct.grpc_slice_buffer, i64, %"class.absl::lts_20230802::Status", i32, i32, [4 x [8 x i32]], %"struct.grpc_event_engine::experimental::EventEngine::TaskHandle", i32, i32, i32, %"class.grpc_core::Chttp2PingAbusePolicy", %"class.grpc_core::Chttp2PingRatePolicy", %"class.grpc_core::Chttp2PingCallbacks", %"struct.grpc_event_engine::experimental::EventEngine::TaskHandle", %struct.grpc_closure, %"class.grpc_core::Chttp2MaxConcurrentStreamsPolicy", i64, i64, ptr, %"class.grpc_core::HPackParser", %union.anon.241, %struct.grpc_chttp2_goaway_parser, %"class.grpc_core::chttp2::TransportFlowControl", i64, i32, i8, i8, i8, i8, i32, i32, i32, i32, i8, ptr, %"struct.grpc_chttp2_transport::Parser", ptr, %struct.grpc_closure, %struct.grpc_closure, %struct.grpc_closure, %"class.absl::lts_20230802::Status", %struct.grpc_closure_list, %struct.grpc_closure, %struct.grpc_closure, %"struct.grpc_event_engine::experimental::EventEngine::TaskHandle", %struct.grpc_closure, %struct.grpc_closure, %"struct.grpc_event_engine::experimental::EventEngine::TaskHandle", %"class.grpc_core::Duration", %"class.grpc_core::Duration", %"struct.std::atomic.242", i32, i32, ptr, %"class.grpc_core::RefCountedPtr.244", i32, i32, i32, %"class.grpc_core::Duration", %"struct.grpc_event_engine::experimental::EventEngine::TaskHandle", %"class.grpc_core::Duration", i32, i32, %"class.grpc_core::Chttp2WriteSizePolicy", i8, i8, i8, i8, i8, i8, i8, i8, i8, i8, i8, i8, i8, i8, i8, i8 }
%"class.grpc_core::Transport" = type { %"class.grpc_core::Orphanable" }
%"class.grpc_core::Orphanable" = type { ptr }
%"class.grpc_core::FilterStackTransport" = type { ptr }
%"class.grpc_core::RefCounted" = type { %"class.grpc_core::RefCount" }
%"class.grpc_core::RefCount" = type { %"struct.std::atomic.52" }
%"struct.std::atomic.52" = type { %"struct.std::__atomic_base.53" }
%"struct.std::__atomic_base.53" = type { i64 }
%"class.grpc_core::Slice" = type { %"class.grpc_core::slice_detail::BaseSlice" }
%"class.grpc_core::slice_detail::BaseSlice" = type { %struct.grpc_slice }
%struct.grpc_slice = type { ptr, %"union.grpc_slice::grpc_slice_data" }
%"union.grpc_slice::grpc_slice_data" = type { %"struct.grpc_slice::grpc_slice_data::grpc_slice_refcounted", [8 x i8] }
%"struct.grpc_slice::grpc_slice_data::grpc_slice_refcounted" = type { i64, ptr }
%"class.grpc_core::MemoryOwner" = type { %"class.grpc_event_engine::experimental::MemoryAllocator" }
%"class.grpc_event_engine::experimental::MemoryAllocator" = type { %"class.std::shared_ptr.54" }
%"class.std::shared_ptr.54" = type { %"class.std::__shared_ptr.55" }
%"class.std::__shared_ptr.55" = type { ptr, %"class.std::__shared_count" }
%"class.grpc_event_engine::experimental::MemoryAllocator::Reservation" = type { %"class.std::shared_ptr.54", i64 }
%"class.grpc_core::ReclamationSweep" = type { %"class.std::shared_ptr.57", i64, %"class.grpc_core::Waker" }
%"class.std::shared_ptr.57" = type { %"class.std::__shared_ptr.58" }
%"class.std::__shared_ptr.58" = type { ptr, %"class.std::__shared_count" }
%"class.grpc_core::Waker" = type { %"struct.grpc_core::Waker::WakeableAndArg" }
%"struct.grpc_core::Waker::WakeableAndArg" = type { ptr, i16 }
%"class.std::shared_ptr.60" = type { %"class.std::__shared_ptr.61" }
%"class.std::__shared_ptr.61" = type { ptr, %"class.std::__shared_count" }
%"class.absl::lts_20230802::random_internal::NonsecureURBGBase" = type { %"class.absl::lts_20230802::random_internal::randen_engine" }
%"class.absl::lts_20230802::random_internal::randen_engine" = type { [264 x i8], i64, %"class.absl::lts_20230802::random_internal::Randen" }
%"class.absl::lts_20230802::random_internal::Randen" = type <{ ptr, i8, [7 x i8] }>
%struct.grpc_chttp2_stream_list = type { ptr, ptr }
%"class.absl::lts_20230802::flat_hash_map" = type { %"class.absl::lts_20230802::container_internal::raw_hash_map" }
%"class.absl::lts_20230802::container_internal::raw_hash_map" = type { %"class.absl::lts_20230802::container_internal::raw_hash_set" }
%"class.absl::lts_20230802::container_internal::raw_hash_set" = type { %"class.absl::lts_20230802::container_internal::CompressedTuple" }
%"class.absl::lts_20230802::container_internal::CompressedTuple" = type { %"struct.absl::lts_20230802::container_internal::internal_compressed_tuple::CompressedTupleImpl" }
%"struct.absl::lts_20230802::container_internal::internal_compressed_tuple::CompressedTupleImpl" = type { %"struct.absl::lts_20230802::container_internal::internal_compressed_tuple::Storage" }
%"struct.absl::lts_20230802::container_internal::internal_compressed_tuple::Storage" = type { %"class.absl::lts_20230802::container_internal::CommonFields" }
%"class.absl::lts_20230802::container_internal::CommonFields" = type { ptr, ptr, i64, %"class.absl::lts_20230802::container_internal::CompressedTuple.63" }
%"class.absl::lts_20230802::container_internal::CompressedTuple.63" = type { %"struct.absl::lts_20230802::container_internal::internal_compressed_tuple::CompressedTupleImpl.64" }
%"struct.absl::lts_20230802::container_internal::internal_compressed_tuple::CompressedTupleImpl.64" = type { %"struct.absl::lts_20230802::container_internal::internal_compressed_tuple::Storage.65" }
%"struct.absl::lts_20230802::container_internal::internal_compressed_tuple::Storage.65" = type { i64 }
%"class.grpc_core::ConnectivityStateTracker" = type { ptr, %"struct.std::atomic.75", %"class.absl::lts_20230802::Status", %"class.std::map" }
%"struct.std::atomic.75" = type { i32 }
%"class.std::map" = type { %"class.std::_Rb_tree" }
%"class.std::_Rb_tree" = type { %"struct.std::_Rb_tree<grpc_core::ConnectivityStateWatcherInterface *, std::pair<grpc_core::ConnectivityStateWatcherInterface *const, std::unique_ptr<grpc_core::ConnectivityStateWatcherInterface, grpc_core::OrphanableDelete>>, std::_Select1st<std::pair<grpc_core::ConnectivityStateWatcherInterface *const, std::unique_ptr<grpc_core::ConnectivityStateWatcherInterface, grpc_core::OrphanableDelete>>>, std::less<grpc_core::ConnectivityStateWatcherInterface *>>::_Rb_tree_impl" }
%"struct.std::_Rb_tree<grpc_core::ConnectivityStateWatcherInterface *, std::pair<grpc_core::ConnectivityStateWatcherInterface *const, std::unique_ptr<grpc_core::ConnectivityStateWatcherInterface, grpc_core::OrphanableDelete>>, std::_Select1st<std::pair<grpc_core::ConnectivityStateWatcherInterface *const, std::unique_ptr<grpc_core::ConnectivityStateWatcherInterface, grpc_core::OrphanableDelete>>>, std::less<grpc_core::ConnectivityStateWatcherInterface *>>::_Rb_tree_impl" = type { %"struct.std::_Rb_tree_key_compare", %"struct.std::_Rb_tree_header" }
%"struct.std::_Rb_tree_key_compare" = type { %"struct.std::less" }
%"struct.std::less" = type { i8 }
%"struct.std::_Rb_tree_header" = type { %"struct.std::_Rb_tree_node_base", i64 }
%"struct.std::_Rb_tree_node_base" = type { i32, ptr, ptr, ptr }
%"class.grpc_core::SliceBuffer" = type { %struct.grpc_slice_buffer }
%"class.grpc_core::HPackCompressor" = type { i32, i8, %"class.grpc_core::HPackEncoderTable", %"struct.grpc_core::metadata_detail::StatefulCompressor" }
%"class.grpc_core::HPackEncoderTable" = type { i32, i32, i32, i32, %"class.std::vector.80" }
%"class.std::vector.80" = type { %"struct.std::_Vector_base.81" }
%"struct.std::_Vector_base.81" = type { %"struct.std::_Vector_base<unsigned short, std::allocator<unsigned short>>::_Vector_impl" }
%"struct.std::_Vector_base<unsigned short, std::allocator<unsigned short>>::_Vector_impl" = type { %"struct.std::_Vector_base<unsigned short, std::allocator<unsigned short>>::_Vector_impl_data" }
%"struct.std::_Vector_base<unsigned short, std::allocator<unsigned short>>::_Vector_impl_data" = type { ptr, ptr, ptr }
%"struct.grpc_core::metadata_detail::StatefulCompressor" = type <{ %"struct.grpc_core::metadata_detail::SpecificStatefulCompressor", %"struct.grpc_core::metadata_detail::StatefulCompressor.base.205", [4 x i8] }>
%"struct.grpc_core::metadata_detail::SpecificStatefulCompressor" = type { %"class.grpc_core::hpack_encoder_detail::Compressor" }
%"class.grpc_core::hpack_encoder_detail::Compressor" = type { %"class.grpc_core::hpack_encoder_detail::SliceIndex" }
%"class.grpc_core::hpack_encoder_detail::SliceIndex" = type { %"class.std::vector.85" }
%"class.std::vector.85" = type { %"struct.std::_Vector_base.86" }
%"struct.std::_Vector_base.86" = type { %"struct.std::_Vector_base<grpc_core::hpack_encoder_detail::SliceIndex::ValueIndex, std::allocator<grpc_core::hpack_encoder_detail::SliceIndex::ValueIndex>>::_Vector_impl" }
%"struct.std::_Vector_base<grpc_core::hpack_encoder_detail::SliceIndex::ValueIndex, std::allocator<grpc_core::hpack_encoder_detail::SliceIndex::ValueIndex>>::_Vector_impl" = type { %"struct.std::_Vector_base<grpc_core::hpack_encoder_detail::SliceIndex::ValueIndex, std::allocator<grpc_core::hpack_encoder_detail::SliceIndex::ValueIndex>>::_Vector_impl_data" }
%"struct.std::_Vector_base<grpc_core::hpack_encoder_detail::SliceIndex::ValueIndex, std::allocator<grpc_core::hpack_encoder_detail::SliceIndex::ValueIndex>>::_Vector_impl_data" = type { ptr, ptr, ptr }
%"struct.grpc_core::metadata_detail::StatefulCompressor.base.205" = type <{ %"struct.grpc_core::metadata_detail::SpecificStatefulCompressor.91", %"struct.grpc_core::metadata_detail::StatefulCompressor.base.204" }>
%"struct.grpc_core::metadata_detail::SpecificStatefulCompressor.91" = type { %"class.grpc_core::hpack_encoder_detail::Compressor.92" }
%"class.grpc_core::hpack_encoder_detail::Compressor.92" = type { %"class.grpc_core::hpack_encoder_detail::SliceIndex" }
%"struct.grpc_core::metadata_detail::StatefulCompressor.base.204" = type { %"struct.grpc_core::metadata_detail::StatefulCompressor.base.203" }
%"struct.grpc_core::metadata_detail::StatefulCompressor.base.203" = type { %"struct.grpc_core::metadata_detail::StatefulCompressor.base.202" }
%"struct.grpc_core::metadata_detail::StatefulCompressor.base.202" = type { %"struct.grpc_core::metadata_detail::StatefulCompressor.base.201" }
%"struct.grpc_core::metadata_detail::StatefulCompressor.base.201" = type { %"struct.grpc_core::metadata_detail::SpecificStatefulCompressor.103", [4 x i8], %"struct.grpc_core::metadata_detail::StatefulCompressor.base.200" }
%"struct.grpc_core::metadata_detail::SpecificStatefulCompressor.103" = type { %"class.grpc_core::hpack_encoder_detail::Compressor.104" }
%"class.grpc_core::hpack_encoder_detail::Compressor.104" = type { i32 }
%"struct.grpc_core::metadata_detail::StatefulCompressor.base.200" = type { %"struct.grpc_core::metadata_detail::SpecificStatefulCompressor.106", [4 x i8], %"struct.grpc_core::metadata_detail::StatefulCompressor.base.199" }
%"struct.grpc_core::metadata_detail::SpecificStatefulCompressor.106" = type { %"class.grpc_core::hpack_encoder_detail::Compressor.107" }
%"class.grpc_core::hpack_encoder_detail::Compressor.107" = type { i32 }
%"struct.grpc_core::metadata_detail::StatefulCompressor.base.199" = type { %"struct.grpc_core::metadata_detail::SpecificStatefulCompressor.109", [4 x i8], %"struct.grpc_core::metadata_detail::StatefulCompressor.base.198" }
%"struct.grpc_core::metadata_detail::SpecificStatefulCompressor.109" = type { %"class.grpc_core::hpack_encoder_detail::Compressor.110" }
%"class.grpc_core::hpack_encoder_detail::Compressor.110" = type { [3 x i32] }
%"struct.grpc_core::metadata_detail::StatefulCompressor.base.198" = type { %"struct.grpc_core::metadata_detail::StatefulCompressor.base.197" }
%"struct.grpc_core::metadata_detail::StatefulCompressor.base.197" = type { %"struct.grpc_core::metadata_detail::SpecificStatefulCompressor.115", %"struct.grpc_core::metadata_detail::StatefulCompressor.base.196" }
%"struct.grpc_core::metadata_detail::SpecificStatefulCompressor.115" = type { %"class.grpc_core::hpack_encoder_detail::Compressor.116" }
%"class.grpc_core::hpack_encoder_detail::Compressor.116" = type { %"class.grpc_core::CompressionAlgorithmSet", i32 }
%"class.grpc_core::CompressionAlgorithmSet" = type { %"class.grpc_core::BitSet" }
%"class.grpc_core::BitSet" = type { [1 x i8] }
%"struct.grpc_core::metadata_detail::StatefulCompressor.base.196" = type { %"struct.grpc_core::metadata_detail::SpecificStatefulCompressor.118", %"struct.grpc_core::metadata_detail::StatefulCompressor.base.195" }
%"struct.grpc_core::metadata_detail::SpecificStatefulCompressor.118" = type { %"class.grpc_core::hpack_encoder_detail::Compressor.119" }
%"class.grpc_core::hpack_encoder_detail::Compressor.119" = type { [16 x i32] }
%"struct.grpc_core::metadata_detail::StatefulCompressor.base.195" = type { %"struct.grpc_core::metadata_detail::SpecificStatefulCompressor.121", [4 x i8], %"struct.grpc_core::metadata_detail::StatefulCompressor.base.194" }
%"struct.grpc_core::metadata_detail::SpecificStatefulCompressor.121" = type { %"class.grpc_core::hpack_encoder_detail::Compressor.122" }
%"class.grpc_core::hpack_encoder_detail::Compressor.122" = type { %"class.grpc_core::hpack_encoder_detail::TimeoutCompressorImpl" }
%"class.grpc_core::hpack_encoder_detail::TimeoutCompressorImpl" = type { [5 x %"struct.grpc_core::hpack_encoder_detail::PreviousTimeout"], i32 }
%"struct.grpc_core::hpack_encoder_detail::PreviousTimeout" = type { %"class.grpc_core::Timeout", i32 }
%"class.grpc_core::Timeout" = type <{ i16, i8, i8 }>
%"struct.grpc_core::metadata_detail::StatefulCompressor.base.194" = type { %"struct.grpc_core::metadata_detail::StatefulCompressor.base.193" }
%"struct.grpc_core::metadata_detail::StatefulCompressor.base.193" = type { %"struct.grpc_core::metadata_detail::StatefulCompressor.base.192" }
%"struct.grpc_core::metadata_detail::StatefulCompressor.base.192" = type { %"struct.grpc_core::metadata_detail::SpecificStatefulCompressor.base", [4 x i8], %"struct.grpc_core::metadata_detail::StatefulCompressor.base.191" }
%"struct.grpc_core::metadata_detail::SpecificStatefulCompressor.base" = type { %"class.grpc_core::hpack_encoder_detail::Compressor.base" }
%"class.grpc_core::hpack_encoder_detail::Compressor.base" = type <{ %"class.grpc_core::Slice", i32 }>
%"struct.grpc_core::metadata_detail::StatefulCompressor.base.191" = type { %"struct.grpc_core::metadata_detail::StatefulCompressor.base.190" }
%"struct.grpc_core::metadata_detail::StatefulCompressor.base.190" = type { %"struct.grpc_core::metadata_detail::StatefulCompressor.base.189" }
%"struct.grpc_core::metadata_detail::StatefulCompressor.base.189" = type { %"struct.grpc_core::metadata_detail::StatefulCompressor.base.188" }
%"struct.grpc_core::metadata_detail::StatefulCompressor.base.188" = type { %"struct.grpc_core::metadata_detail::StatefulCompressor.base.187" }
%"struct.grpc_core::metadata_detail::StatefulCompressor.base.187" = type { %"struct.grpc_core::metadata_detail::SpecificStatefulCompressor.145", [4 x i8], %"struct.grpc_core::metadata_detail::StatefulCompressor.base.186" }
%"struct.grpc_core::metadata_detail::SpecificStatefulCompressor.145" = type { %"class.grpc_core::hpack_encoder_detail::Compressor.146" }
%"class.grpc_core::hpack_encoder_detail::Compressor.146" = type { i32 }
%"struct.grpc_core::metadata_detail::StatefulCompressor.base.186" = type { %"struct.grpc_core::metadata_detail::SpecificStatefulCompressor.148", [4 x i8], %"struct.grpc_core::metadata_detail::StatefulCompressor.base.185" }
%"struct.grpc_core::metadata_detail::SpecificStatefulCompressor.148" = type { %"class.grpc_core::hpack_encoder_detail::Compressor.149" }
%"class.grpc_core::hpack_encoder_detail::Compressor.149" = type { i32 }
%"struct.grpc_core::metadata_detail::StatefulCompressor.base.185" = type { %"struct.grpc_core::metadata_detail::StatefulCompressor.base.184" }
%"struct.grpc_core::metadata_detail::StatefulCompressor.base.184" = type { %"struct.grpc_core::metadata_detail::StatefulCompressor.base.183" }
%"struct.grpc_core::metadata_detail::StatefulCompressor.base.183" = type { %"struct.grpc_core::metadata_detail::StatefulCompressor.base" }
%"struct.grpc_core::metadata_detail::StatefulCompressor.base" = type { %"struct.grpc_core::metadata_detail::SpecificStatefulCompressor.base.163" }
%"struct.grpc_core::metadata_detail::SpecificStatefulCompressor.base.163" = type { %"class.grpc_core::hpack_encoder_detail::Compressor.base.162" }
%"class.grpc_core::hpack_encoder_detail::Compressor.base.162" = type <{ %"class.grpc_core::Slice", i32 }>
%struct.grpc_slice_buffer = type { ptr, ptr, i64, i64, i64, [7 x %struct.grpc_slice] }
%"class.grpc_core::Chttp2PingAbusePolicy" = type { %"class.grpc_core::Timestamp", %"class.grpc_core::Duration", i32, i32 }
%"class.grpc_core::Chttp2PingRatePolicy" = type { i32, i32, i32, %"class.grpc_core::Timestamp" }
%"class.grpc_core::Chttp2PingCallbacks" = type { %"class.absl::lts_20230802::flat_hash_map.207", i64, i8, i8, %"class.std::vector.222", %"class.std::vector.222" }
%"class.absl::lts_20230802::flat_hash_map.207" = type { %"class.absl::lts_20230802::container_internal::raw_hash_map.208" }
%"class.absl::lts_20230802::container_internal::raw_hash_map.208" = type { %"class.absl::lts_20230802::container_internal::raw_hash_set.209" }
%"class.absl::lts_20230802::container_internal::raw_hash_set.209" = type { %"class.absl::lts_20230802::container_internal::CompressedTuple.210" }
%"class.absl::lts_20230802::container_internal::CompressedTuple.210" = type { %"struct.absl::lts_20230802::container_internal::internal_compressed_tuple::CompressedTupleImpl.211" }
%"struct.absl::lts_20230802::container_internal::internal_compressed_tuple::CompressedTupleImpl.211" = type { %"struct.absl::lts_20230802::container_internal::internal_compressed_tuple::Storage" }
%"class.std::vector.222" = type { %"struct.std::_Vector_base.223" }
%"struct.std::_Vector_base.223" = type { %"struct.std::_Vector_base<absl::lts_20230802::AnyInvocable<void ()>, std::allocator<absl::lts_20230802::AnyInvocable<void ()>>>::_Vector_impl" }
%"struct.std::_Vector_base<absl::lts_20230802::AnyInvocable<void ()>, std::allocator<absl::lts_20230802::AnyInvocable<void ()>>>::_Vector_impl" = type { %"struct.std::_Vector_base<absl::lts_20230802::AnyInvocable<void ()>, std::allocator<absl::lts_20230802::AnyInvocable<void ()>>>::_Vector_impl_data" }
%"struct.std::_Vector_base<absl::lts_20230802::AnyInvocable<void ()>, std::allocator<absl::lts_20230802::AnyInvocable<void ()>>>::_Vector_impl_data" = type { ptr, ptr, ptr }
%"class.grpc_core::Chttp2MaxConcurrentStreamsPolicy" = type { i32, i32, i32, i32 }
%"class.grpc_core::HPackParser" = type { ptr, %"class.std::vector.227", i64, i8, i8, %"struct.grpc_core::HPackParser::LogInfo", %"struct.grpc_core::HPackParser::InterSliceState" }
%"class.std::vector.227" = type { %"struct.std::_Vector_base.228" }
%"struct.std::_Vector_base.228" = type { %"struct.std::_Vector_base<unsigned char, std::allocator<unsigned char>>::_Vector_impl" }
%"struct.std::_Vector_base<unsigned char, std::allocator<unsigned char>>::_Vector_impl" = type { %"struct.std::_Vector_base<unsigned char, std::allocator<unsigned char>>::_Vector_impl_data" }
%"struct.std::_Vector_base<unsigned char, std::allocator<unsigned char>>::_Vector_impl_data" = type { ptr, ptr, ptr }
%"struct.grpc_core::HPackParser::LogInfo" = type { i32, i8, i8 }
%"struct.grpc_core::HPackParser::InterSliceState" = type { %"class.grpc_core::HPackTable", %"class.grpc_core::HpackParseResult", i32, i32, %"class.grpc_core::RandomEarlyDetection", i8, i8, i8, i8, i8, [3 x i8], %"class.std::variant" }
%"class.grpc_core::HPackTable" = type { i32, i32, i32, %"class.grpc_core::HPackTable::MementoRingBuffer", ptr }
%"class.grpc_core::HPackTable::MementoRingBuffer" = type { i32, i32, i32, %"class.std::vector.232" }
%"class.std::vector.232" = type { %"struct.std::_Vector_base.233" }
%"struct.std::_Vector_base.233" = type { %"struct.std::_Vector_base<grpc_core::HPackTable::Memento, std::allocator<grpc_core::HPackTable::Memento>>::_Vector_impl" }
%"struct.std::_Vector_base<grpc_core::HPackTable::Memento, std::allocator<grpc_core::HPackTable::Memento>>::_Vector_impl" = type { %"struct.std::_Vector_base<grpc_core::HPackTable::Memento, std::allocator<grpc_core::HPackTable::Memento>>::_Vector_impl_data" }
%"struct.std::_Vector_base<grpc_core::HPackTable::Memento, std::allocator<grpc_core::HPackTable::Memento>>::_Vector_impl_data" = type { ptr, ptr, ptr }
%"class.grpc_core::HpackParseResult" = type { %"class.grpc_core::RefCountedPtr" }
%"class.grpc_core::RefCountedPtr" = type { ptr }
%"class.grpc_core::RandomEarlyDetection" = type { i64, i64 }
%"class.std::variant" = type { %"struct.std::__detail::__variant::_Variant_base.base", [7 x i8] }
%"struct.std::__detail::__variant::_Variant_base.base" = type { %"struct.std::__detail::__variant::_Move_assign_base.base" }
%"struct.std::__detail::__variant::_Move_assign_base.base" = type { %"struct.std::__detail::__variant::_Copy_assign_base.base" }
%"struct.std::__detail::__variant::_Copy_assign_base.base" = type { %"struct.std::__detail::__variant::_Move_ctor_base.base" }
%"struct.std::__detail::__variant::_Move_ctor_base.base" = type { %"struct.std::__detail::__variant::_Copy_ctor_base.base" }
%"struct.std::__detail::__variant::_Copy_ctor_base.base" = type { %"struct.std::__detail::__variant::_Variant_storage.base" }
%"struct.std::__detail::__variant::_Variant_storage.base" = type <{ %"union.std::__detail::__variant::_Variadic_union", i8 }>
%"union.std::__detail::__variant::_Variadic_union" = type { %"struct.std::__detail::__variant::_Uninitialized", [24 x i8] }
%"struct.std::__detail::__variant::_Uninitialized" = type { ptr }
%union.anon.241 = type { %struct.grpc_chttp2_settings_parser }
%struct.grpc_chttp2_settings_parser = type { i32, ptr, i8, i16, i32, [8 x i32] }
%struct.grpc_chttp2_goaway_parser = type { i32, i32, i32, ptr, i32, i32 }
%"class.grpc_core::chttp2::TransportFlowControl" = type { ptr, i64, i8, %"class.grpc_core::BdpEstimator", %"class.grpc_core::PidController", %"class.grpc_core::Timestamp", i64, i64, i64, i64, i64, i32, i32 }
%"class.grpc_core::BdpEstimator" = type { i64, i64, %struct.gpr_timespec, %"class.grpc_core::Duration", i32, i32, double, %"class.std::basic_string_view" }
%"class.grpc_core::PidController" = type { double, double, double, double, %"class.grpc_core::PidController::Args" }
%"class.grpc_core::PidController::Args" = type { double, double, double, double, double, double, double }
%"struct.grpc_chttp2_transport::Parser" = type { ptr, ptr, ptr }
%struct.grpc_closure_list = type { ptr, ptr }
%struct.grpc_closure = type { %union.anon.73, ptr, ptr, %union.anon.74 }
%union.anon.73 = type { ptr }
%union.anon.74 = type { i64 }
%"struct.std::atomic.242" = type { %"struct.std::__atomic_base.243" }
%"struct.std::__atomic_base.243" = type { i64 }
%"class.grpc_core::RefCountedPtr.244" = type { ptr }
%"class.grpc_core::Chttp2WriteSizePolicy" = type <{ i64, %"class.grpc_core::Timestamp", i8, [7 x i8] }>

; Function Attrs: mustprogress uwtable
define void @_Z28grpc_chttp2_reset_ping_clockP21grpc_chttp2_transport(ptr noundef %t) #5 {
entry:
  %t.addr = alloca ptr, align 8
  store ptr %t, ptr %t.addr, align 8
  %0 = load ptr, ptr %t.addr, align 8
  %is_client = getelementptr inbounds %struct.grpc_chttp2_transport, ptr %0, i32 0, i32 100
  %1 = load i8, ptr %is_client, align 8
  %tobool = trunc i8 %1 to i1
  br i1 %tobool, label %if.end, label %if.then

if.then:                                          ; preds = %entry
  %2 = load ptr, ptr %t.addr, align 8
  %ping_abuse_policy = getelementptr inbounds %struct.grpc_chttp2_transport, ptr %2, i32 0, i32 38
  call void @_ZN9grpc_core21Chttp2PingAbusePolicy16ResetPingStrikesEv(ptr noundef nonnull align 8 dereferenceable(24) %ping_abuse_policy)
  br label %if.end

if.end:                                           ; preds = %if.then, %entry
  %3 = load ptr, ptr %t.addr, align 8
  %ping_rate_policy = getelementptr inbounds %struct.grpc_chttp2_transport, ptr %3, i32 0, i32 39
  call void @_ZN9grpc_core20Chttp2PingRatePolicy28ResetPingsBeforeDataRequiredEv(ptr noundef nonnull align 8 dereferenceable(24) %ping_rate_policy)
  ret void
}