; Function Attrs: mustprogress uwtable
define void @_Z28grpc_chttp2_reset_ping_clockP21grpc_chttp2_transport(ptr noundef %t) local_unnamed_addr #5 {
entry:
  %is_client = getelementptr inbounds i8, ptr %t, i64 3376
  %0 = load i8, ptr %is_client, align 8
  %1 = and i8 %0, 1
  %tobool.not = icmp eq i8 %1, 0
  br i1 %tobool.not, label %if.then, label %if.end

if.then:                                          ; preds = %entry
  %ping_abuse_policy = getelementptr inbounds i8, ptr %t, i64 2120
  tail call void @_ZN9grpc_core21Chttp2PingAbusePolicy16ResetPingStrikesEv(ptr noundef nonnull align 8 dereferenceable(24) %ping_abuse_policy)
  br label %if.end

if.end:                                           ; preds = %if.then, %entry
  %ping_rate_policy = getelementptr inbounds i8, ptr %t, i64 2144
  tail call void @_ZN9grpc_core20Chttp2PingRatePolicy28ResetPingsBeforeDataRequiredEv(ptr noundef nonnull align 8 dereferenceable(24) %ping_rate_policy)
  ret void
}